#include <math.h>
#include <stdio.h>
#include <stdlib.h>
#include <string.h>


int main(int argc, char* argv[])
{
	char str1[55];
	char str2[55];
	scanf("%s",str1);
	getchar();
	scanf("%s",str2);
	int l1,l2;
	l1=strlen(str1);
	l2=strlen(str2);
	int i,j,count=0;
	for(i=0;i<l2;i++)
	{
		if(str2[i]==str1[0])
		{
			for(j=1;j<l1;j++)
			{
				if(str1[j]==str2[i+j])
					count++;
			}
			if(count==l1-1)
				printf("%d",i);
		}
	}
	return 0;
}