; ModuleID = '45/2726.c'
source_filename = "45/2726.c"
target datalayout = "e-m:e-p270:32:32-p271:32:32-p272:64:64-i64:64-f80:128-n8:16:32:64-S128"
target triple = "x86_64-pc-linux-gnu"

@.str = private unnamed_addr constant [3 x i8] c"%s\00", align 1
@.str.1 = private unnamed_addr constant [3 x i8] c"%d\00", align 1

; Function Attrs: noinline nounwind uwtable
define dso_local i32 @main(i32 %0, i8** %1) #0 {
  %3 = alloca i32, align 4
  %4 = alloca i32, align 4
  %5 = alloca i8**, align 8
  %6 = alloca [55 x i8], align 16
  %7 = alloca [55 x i8], align 16
  %8 = alloca i32, align 4
  %9 = alloca i32, align 4
  %10 = alloca i32, align 4
  %11 = alloca i32, align 4
  %12 = alloca i32, align 4
  store i32 0, i32* %3, align 4
  store i32 %0, i32* %4, align 4
  store i8** %1, i8*** %5, align 8
  %13 = getelementptr inbounds [55 x i8], [55 x i8]* %6, i64 0, i64 0
  %14 = call i32 (i8*, ...) @__isoc99_scanf(i8* getelementptr inbounds ([3 x i8], [3 x i8]* @.str, i64 0, i64 0), i8* %13)
  %15 = call i32 @getchar()
  %16 = getelementptr inbounds [55 x i8], [55 x i8]* %7, i64 0, i64 0
  %17 = call i32 (i8*, ...) @__isoc99_scanf(i8* getelementptr inbounds ([3 x i8], [3 x i8]* @.str, i64 0, i64 0), i8* %16)
  %18 = getelementptr inbounds [55 x i8], [55 x i8]* %6, i64 0, i64 0
  %19 = call i64 @strlen(i8* %18) #3
  %20 = trunc i64 %19 to i32
  store i32 %20, i32* %8, align 4
  %21 = getelementptr inbounds [55 x i8], [55 x i8]* %7, i64 0, i64 0
  %22 = call i64 @strlen(i8* %21) #3
  %23 = trunc i64 %22 to i32
  store i32 %23, i32* %9, align 4
  store i32 0, i32* %12, align 4
  store i32 0, i32* %10, align 4
  br label %24

24:                                               ; preds = %74, %2
  %25 = load i32, i32* %10, align 4
  %26 = load i32, i32* %9, align 4
  %27 = icmp slt i32 %25, %26
  br i1 %27, label %28, label %77

28:                                               ; preds = %24
  %29 = load i32, i32* %10, align 4
  %30 = sext i32 %29 to i64
  %31 = getelementptr inbounds [55 x i8], [55 x i8]* %7, i64 0, i64 %30
  %32 = load i8, i8* %31, align 1
  %33 = sext i8 %32 to i32
  %34 = getelementptr inbounds [55 x i8], [55 x i8]* %6, i64 0, i64 0
  %35 = load i8, i8* %34, align 16
  %36 = sext i8 %35 to i32
  %37 = icmp eq i32 %33, %36
  br i1 %37, label %38, label %73

38:                                               ; preds = %28
  store i32 1, i32* %11, align 4
  br label %39

39:                                               ; preds = %61, %38
  %40 = load i32, i32* %11, align 4
  %41 = load i32, i32* %8, align 4
  %42 = icmp slt i32 %40, %41
  br i1 %42, label %43, label %64

43:                                               ; preds = %39
  %44 = load i32, i32* %11, align 4
  %45 = sext i32 %44 to i64
  %46 = getelementptr inbounds [55 x i8], [55 x i8]* %6, i64 0, i64 %45
  %47 = load i8, i8* %46, align 1
  %48 = sext i8 %47 to i32
  %49 = load i32, i32* %10, align 4
  %50 = load i32, i32* %11, align 4
  %51 = add nsw i32 %49, %50
  %52 = sext i32 %51 to i64
  %53 = getelementptr inbounds [55 x i8], [55 x i8]* %7, i64 0, i64 %52
  %54 = load i8, i8* %53, align 1
  %55 = sext i8 %54 to i32
  %56 = icmp eq i32 %48, %55
  br i1 %56, label %57, label %60

57:                                               ; preds = %43
  %58 = load i32, i32* %12, align 4
  %59 = add nsw i32 %58, 1
  store i32 %59, i32* %12, align 4
  br label %60

60:                                               ; preds = %57, %43
  br label %61

61:                                               ; preds = %60
  %62 = load i32, i32* %11, align 4
  %63 = add nsw i32 %62, 1
  store i32 %63, i32* %11, align 4
  br label %39

64:                                               ; preds = %39
  %65 = load i32, i32* %12, align 4
  %66 = load i32, i32* %8, align 4
  %67 = sub nsw i32 %66, 1
  %68 = icmp eq i32 %65, %67
  br i1 %68, label %69, label %72

69:                                               ; preds = %64
  %70 = load i32, i32* %10, align 4
  %71 = call i32 (i8*, ...) @printf(i8* getelementptr inbounds ([3 x i8], [3 x i8]* @.str.1, i64 0, i64 0), i32 %70)
  br label %72

72:                                               ; preds = %69, %64
  br label %73

73:                                               ; preds = %72, %28
  br label %74

74:                                               ; preds = %73
  %75 = load i32, i32* %10, align 4
  %76 = add nsw i32 %75, 1
  store i32 %76, i32* %10, align 4
  br label %24

77:                                               ; preds = %24
  ret i32 0
}

declare dso_local i32 @__isoc99_scanf(i8*, ...) #1

declare dso_local i32 @getchar() #1

; Function Attrs: nounwind readonly
declare dso_local i64 @strlen(i8*) #2

declare dso_local i32 @printf(i8*, ...) #1


!llvm.module.flags = !{!0}
!llvm.ident = !{!1}

!0 = !{i32 1, !"wchar_size", i32 4}
!1 = !{!"clang version 10.0.0-4ubuntu1 "}
